; Function Attrs: nounwind uwtable
define internal fastcc void @_handle_srun_timeout(i32 noundef %0, i32 noundef %1) unnamed_addr #0 {
  %3 = alloca %struct.slurm_msg, align 8
  call void @llvm.lifetime.start.p0(i64 424, ptr nonnull %3) #13
  %4 = call fastcc i32 @_handle_stepmgr_relay_msg(i32 noundef %0, i32 noundef %1, ptr noundef %3, i16 noundef zeroext 7002, i1 noundef zeroext false)
  %.not = icmp eq i32 %4, 0
  br i1 %.not, label %5, label %15

5:                                                ; preds = %2
  %6 = call i32 @pthread_mutex_lock(ptr noundef nonnull @stepmgr_mutex) #13
  %.not8 = icmp eq i32 %6, 0
  br i1 %.not8, label %9, label %7

7:                                                ; preds = %5
  %8 = tail call ptr @__errno_location() #14
  store i32 %6, ptr %8, align 4
  call void (ptr, ...) @fatal_abort(ptr noundef nonnull @.str.22, ptr noundef nonnull @__func__._handle_srun_timeout) #15
  unreachable

9:                                                ; preds = %5
  %10 = load ptr, ptr @job_step_ptr, align 8
  call void @srun_timeout(ptr noundef %10) #13
  %11 = call i32 @pthread_mutex_unlock(ptr noundef nonnull @stepmgr_mutex) #13
  %.not9 = icmp eq i32 %11, 0
  br i1 %.not9, label %14, label %12

12:                                               ; preds = %9
  %13 = tail call ptr @__errno_location() #14
  store i32 %11, ptr %13, align 4
  call void (ptr, ...) @fatal_abort(ptr noundef nonnull @.str.23, ptr noundef nonnull @__func__._handle_srun_timeout) #15
  unreachable

14:                                               ; preds = %9
  call void @slurm_free_msg_members(ptr noundef nonnull %3) #13
  br label %15

15:                                               ; preds = %2, %14
  call void @llvm.lifetime.end.p0(i64 424, ptr nonnull %3) #13
  ret void
}